; Function Attrs: mustprogress nounwind uwtable
define internal fastcc void @_ZNK12_GLOBAL__N_117OperandsSignature18getWithoutImmCodesEv(ptr dead_on_unwind noalias nonnull writable align 8 %0, ptr noundef nonnull align 8 dereferenceable(32) %1) unnamed_addr #0 align 2 {
  %3 = getelementptr inbounds i8, ptr %0, i64 24
  tail call void @_ZN4llvm15SmallVectorBaseImEC2EPvm(ptr noundef nonnull align 8 dereferenceable(24) %0, ptr noundef nonnull %3, i64 noundef 3) #18
  %4 = tail call noundef i64 @_ZNK4llvm15SmallVectorBaseImE4sizeEv(ptr noundef nonnull align 8 dereferenceable(24) %1) #18
  %5 = and i64 %4, 4294967295
  %.not12 = icmp eq i64 %5, 0
  br i1 %.not12, label %._crit_edge, label %.lr.ph.preheader

.lr.ph.preheader:                                 ; preds = %2
  %6 = and i64 %4, 4294967295
  br label %.lr.ph

.lr.ph:                                           ; preds = %.lr.ph.preheader, %_ZN4llvm23SmallVectorTemplateBaseIN12_GLOBAL__N_117OperandsSignature6OpKindELb1EE9push_backES3_.exit
  %indvars.iv = phi i64 [ 0, %.lr.ph.preheader ], [ %indvars.iv.next, %_ZN4llvm23SmallVectorTemplateBaseIN12_GLOBAL__N_117OperandsSignature6OpKindELb1EE9push_backES3_.exit ]
  %.val = load ptr, ptr %1, align 8
  %7 = getelementptr inbounds %"class.(anonymous namespace)::OperandsSignature::OpKind", ptr %.val, i64 %indvars.iv
  %.val8 = load i8, ptr %7, align 1
  %8 = tail call noundef i64 @_ZNK4llvm15SmallVectorBaseImE4sizeEv(ptr noundef nonnull align 8 dereferenceable(24) %0) #18
  %9 = add i64 %8, 1
  %10 = tail call noundef i64 @_ZNK4llvm15SmallVectorBaseImE8capacityEv(ptr noundef nonnull align 8 dereferenceable(24) %0) #18
  %.not.i.i.i9 = icmp ugt i64 %9, %10
  %..val8 = tail call i8 @llvm.smin.i8(i8 %.val8, i8 2)
  br i1 %.not.i.i.i9, label %_ZN4llvm23SmallVectorTemplateBaseIN12_GLOBAL__N_117OperandsSignature6OpKindELb1EE9push_backES3_.exit.sink.split, label %_ZN4llvm23SmallVectorTemplateBaseIN12_GLOBAL__N_117OperandsSignature6OpKindELb1EE9push_backES3_.exit

_ZN4llvm23SmallVectorTemplateBaseIN12_GLOBAL__N_117OperandsSignature6OpKindELb1EE9push_backES3_.exit.sink.split: ; preds = %.lr.ph
  tail call void @_ZN4llvm15SmallVectorBaseImE8grow_podEPvmm(ptr noundef nonnull align 8 dereferenceable(24) %0, ptr noundef nonnull %3, i64 noundef %9, i64 noundef 1) #18
  br label %_ZN4llvm23SmallVectorTemplateBaseIN12_GLOBAL__N_117OperandsSignature6OpKindELb1EE9push_backES3_.exit

_ZN4llvm23SmallVectorTemplateBaseIN12_GLOBAL__N_117OperandsSignature6OpKindELb1EE9push_backES3_.exit: ; preds = %.lr.ph, %_ZN4llvm23SmallVectorTemplateBaseIN12_GLOBAL__N_117OperandsSignature6OpKindELb1EE9push_backES3_.exit.sink.split
  %.val.i.i = load ptr, ptr %0, align 8
  %11 = tail call noundef i64 @_ZNK4llvm15SmallVectorBaseImE4sizeEv(ptr noundef nonnull align 8 dereferenceable(24) %0) #18
  %12 = getelementptr inbounds %"class.(anonymous namespace)::OperandsSignature::OpKind", ptr %.val.i.i, i64 %11
  store i8 %..val8, ptr %12, align 1
  %13 = tail call noundef i64 @_ZNK4llvm15SmallVectorBaseImE4sizeEv(ptr noundef nonnull align 8 dereferenceable(24) %0) #18
  %14 = add i64 %13, 1
  tail call void @_ZN4llvm15SmallVectorBaseImE8set_sizeEm(ptr noundef nonnull align 8 dereferenceable(24) %0, i64 noundef %14) #18
  %indvars.iv.next = add nuw nsw i64 %indvars.iv, 1
  %.not = icmp eq i64 %indvars.iv.next, %6
  br i1 %.not, label %._crit_edge, label %.lr.ph, !llvm.loop !109

._crit_edge:                                      ; preds = %_ZN4llvm23SmallVectorTemplateBaseIN12_GLOBAL__N_117OperandsSignature6OpKindELb1EE9push_backES3_.exit, %2
  ret void
}